target datalayout = "e-m:e-p270:32:32-p271:32:32-p272:64:64-i64:64-i128:128-f80:128-n8:16:32:64-S128"
target triple = "x86_64-pc-linux-gnu"

%struct.SurfaceDataRasInfo = type { %struct.SurfaceDataBounds, ptr, i32, i32, i32, i32, ptr, ptr, ptr, ptr, ptr, ptr, i32, %union.anon.0 }
%struct.SurfaceDataBounds = type { i32, i32, i32, i32 }
%union.anon.0 = type { ptr, [56 x i8] }
%struct._CompositeInfo = type { i32, %union.anon.1, i32 }
%union.anon.1 = type { float }

@mul8table = external global [256 x [256 x i8]], align 16

; Function Attrs: nounwind uwtable
define hidden void @IntArgbToIntArgbPreXorBlit(ptr noundef %0, ptr noundef %1, i32 noundef %2, i32 noundef %3, ptr noundef %4, ptr noundef %5, ptr noundef %6, ptr noundef %7) #1 {
  %9 = alloca ptr, align 8
  %10 = alloca ptr, align 8
  %11 = alloca i32, align 4
  %12 = alloca i32, align 4
  %13 = alloca ptr, align 8
  %14 = alloca ptr, align 8
  %15 = alloca ptr, align 8
  %16 = alloca ptr, align 8
  %17 = alloca i32, align 4
  %18 = alloca i32, align 4
  %19 = alloca ptr, align 8
  %20 = alloca ptr, align 8
  %21 = alloca i32, align 4
  %22 = alloca i32, align 4
  %23 = alloca i32, align 4
  %24 = alloca i32, align 4
  %25 = alloca i32, align 4
  %26 = alloca i32, align 4
  %27 = alloca i32, align 4
  %28 = alloca i32, align 4
  store ptr %0, ptr %9, align 8
  store ptr %1, ptr %10, align 8
  store i32 %2, ptr %11, align 4
  store i32 %3, ptr %12, align 4
  store ptr %4, ptr %13, align 8
  store ptr %5, ptr %14, align 8
  store ptr %6, ptr %15, align 8
  store ptr %7, ptr %16, align 8
  %29 = load ptr, ptr %16, align 8
  %30 = getelementptr inbounds %struct._CompositeInfo, ptr %29, i32 0, i32 1
  %31 = load i32, ptr %30, align 4
  store i32 %31, ptr %17, align 4
  %32 = load ptr, ptr %16, align 8
  %33 = getelementptr inbounds %struct._CompositeInfo, ptr %32, i32 0, i32 2
  %34 = load i32, ptr %33, align 4
  store i32 %34, ptr %18, align 4
  br label %35

35:                                               ; preds = %8
  %36 = load ptr, ptr %9, align 8
  store ptr %36, ptr %19, align 8
  %37 = load ptr, ptr %10, align 8
  store ptr %37, ptr %20, align 8
  %38 = load ptr, ptr %13, align 8
  %39 = getelementptr inbounds %struct.SurfaceDataRasInfo, ptr %38, i32 0, i32 4
  %40 = load i32, ptr %39, align 8
  store i32 %40, ptr %21, align 4
  %41 = load ptr, ptr %14, align 8
  %42 = getelementptr inbounds %struct.SurfaceDataRasInfo, ptr %41, i32 0, i32 4
  %43 = load i32, ptr %42, align 8
  store i32 %43, ptr %22, align 4
  %44 = load i32, ptr %11, align 4
  %45 = mul i32 %44, 4
  %46 = load i32, ptr %21, align 4
  %47 = sub i32 %46, %45
  store i32 %47, ptr %21, align 4
  %48 = load i32, ptr %11, align 4
  %49 = mul i32 %48, 4
  %50 = load i32, ptr %22, align 4
  %51 = sub i32 %50, %49
  store i32 %51, ptr %22, align 4
  br label %52

52:                                               ; preds = %156, %35
  %53 = load i32, ptr %11, align 4
  store i32 %53, ptr %23, align 4
  br label %54

54:                                               ; preds = %139, %52
  br label %55

55:                                               ; preds = %54
  %56 = load ptr, ptr %19, align 8
  %57 = getelementptr inbounds i32, ptr %56, i64 0
  %58 = load i32, ptr %57, align 4
  store i32 %58, ptr %24, align 4
  %59 = load i32, ptr %24, align 4
  %60 = icmp sge i32 %59, 0
  br i1 %60, label %61, label %62

61:                                               ; preds = %55
  br label %130

62:                                               ; preds = %55
  br label %63

63:                                               ; preds = %62
  %64 = load i32, ptr %24, align 4
  %65 = ashr i32 %64, 24
  %66 = add nsw i32 %65, 1
  %67 = icmp eq i32 %66, 0
  br i1 %67, label %68, label %70

68:                                               ; preds = %63
  %69 = load i32, ptr %24, align 4
  store i32 %69, ptr %24, align 4
  br label %118

70:                                               ; preds = %63
  br label %71

71:                                               ; preds = %70
  %72 = load i32, ptr %24, align 4
  %73 = and i32 %72, 255
  store i32 %73, ptr %28, align 4
  %74 = load i32, ptr %24, align 4
  %75 = ashr i32 %74, 8
  %76 = and i32 %75, 255
  store i32 %76, ptr %27, align 4
  %77 = load i32, ptr %24, align 4
  %78 = ashr i32 %77, 16
  %79 = and i32 %78, 255
  store i32 %79, ptr %26, align 4
  %80 = load i32, ptr %24, align 4
  %81 = ashr i32 %80, 24
  %82 = and i32 %81, 255
  store i32 %82, ptr %25, align 4
  br label %83

83:                                               ; preds = %71
  %84 = load i32, ptr %25, align 4
  %85 = sext i32 %84 to i64
  %86 = getelementptr inbounds [256 x [256 x i8]], ptr @mul8table, i64 0, i64 %85
  %87 = load i32, ptr %26, align 4
  %88 = sext i32 %87 to i64
  %89 = getelementptr inbounds [256 x i8], ptr %86, i64 0, i64 %88
  %90 = load i8, ptr %89, align 1
  %91 = zext i8 %90 to i32
  store i32 %91, ptr %26, align 4
  %92 = load i32, ptr %25, align 4
  %93 = sext i32 %92 to i64
  %94 = getelementptr inbounds [256 x [256 x i8]], ptr @mul8table, i64 0, i64 %93
  %95 = load i32, ptr %27, align 4
  %96 = sext i32 %95 to i64
  %97 = getelementptr inbounds [256 x i8], ptr %94, i64 0, i64 %96
  %98 = load i8, ptr %97, align 1
  %99 = zext i8 %98 to i32
  store i32 %99, ptr %27, align 4
  %100 = load i32, ptr %25, align 4
  %101 = sext i32 %100 to i64
  %102 = getelementptr inbounds [256 x [256 x i8]], ptr @mul8table, i64 0, i64 %101
  %103 = load i32, ptr %28, align 4
  %104 = sext i32 %103 to i64
  %105 = getelementptr inbounds [256 x i8], ptr %102, i64 0, i64 %104
  %106 = load i8, ptr %105, align 1
  %107 = zext i8 %106 to i32
  store i32 %107, ptr %28, align 4
  %108 = load i32, ptr %25, align 4
  %109 = shl i32 %108, 8
  %110 = load i32, ptr %26, align 4
  %111 = or i32 %109, %110
  %112 = shl i32 %111, 8
  %113 = load i32, ptr %27, align 4
  %114 = or i32 %112, %113
  %115 = shl i32 %114, 8
  %116 = load i32, ptr %28, align 4
  %117 = or i32 %115, %116
  store i32 %117, ptr %24, align 4
  br label %118

118:                                              ; preds = %83, %68
  br label %119

119:                                              ; preds = %118
  %120 = load i32, ptr %24, align 4
  %121 = load i32, ptr %17, align 4
  %122 = xor i32 %120, %121
  %123 = load i32, ptr %18, align 4
  %124 = xor i32 %123, -1
  %125 = and i32 %122, %124
  %126 = load ptr, ptr %20, align 8
  %127 = getelementptr inbounds i32, ptr %126, i64 0
  %128 = load i32, ptr %127, align 4
  %129 = xor i32 %128, %125
  store i32 %129, ptr %127, align 4
  br label %130

130:                                              ; preds = %119, %61
  %131 = load ptr, ptr %19, align 8
  %132 = ptrtoint ptr %131 to i64
  %133 = add nsw i64 %132, 4
  %134 = inttoptr i64 %133 to ptr
  store ptr %134, ptr %19, align 8
  %135 = load ptr, ptr %20, align 8
  %136 = ptrtoint ptr %135 to i64
  %137 = add nsw i64 %136, 4
  %138 = inttoptr i64 %137 to ptr
  store ptr %138, ptr %20, align 8
  br label %139

139:                                              ; preds = %130
  %140 = load i32, ptr %23, align 4
  %141 = add i32 %140, -1
  store i32 %141, ptr %23, align 4
  %142 = icmp ugt i32 %141, 0
  br i1 %142, label %54, label %143, !llvm.loop !37

143:                                              ; preds = %139
  %144 = load ptr, ptr %19, align 8
  %145 = ptrtoint ptr %144 to i64
  %146 = load i32, ptr %21, align 4
  %147 = sext i32 %146 to i64
  %148 = add nsw i64 %145, %147
  %149 = inttoptr i64 %148 to ptr
  store ptr %149, ptr %19, align 8
  %150 = load ptr, ptr %20, align 8
  %151 = ptrtoint ptr %150 to i64
  %152 = load i32, ptr %22, align 4
  %153 = sext i32 %152 to i64
  %154 = add nsw i64 %151, %153
  %155 = inttoptr i64 %154 to ptr
  store ptr %155, ptr %20, align 8
  br label %156

156:                                              ; preds = %143
  %157 = load i32, ptr %12, align 4
  %158 = add i32 %157, -1
  store i32 %158, ptr %12, align 4
  %159 = icmp ugt i32 %158, 0
  br i1 %159, label %52, label %160, !llvm.loop !38

160:                                              ; preds = %156
  br label %161

161:                                              ; preds = %160
  ret void
}