; Function Attrs: nofree norecurse nosync nounwind memory(readwrite, inaccessiblemem: none) uwtable
define hidden void @IntArgbToIntArgbPreXorBlit(ptr noundef %0, ptr noundef %1, i32 noundef %2, i32 noundef %3, ptr nocapture noundef readonly %4, ptr nocapture noundef readonly %5, ptr nocapture readnone %6, ptr nocapture noundef readonly %7) #1 {
  %9 = getelementptr inbounds i8, ptr %7, i64 4
  %10 = load i32, ptr %9, align 4
  %11 = getelementptr inbounds i8, ptr %7, i64 8
  %12 = load i32, ptr %11, align 4
  %13 = getelementptr inbounds i8, ptr %4, i64 32
  %14 = load i32, ptr %13, align 8
  %15 = getelementptr inbounds i8, ptr %5, i64 32
  %16 = load i32, ptr %15, align 8
  %17 = shl i32 %2, 2
  %18 = sub i32 %14, %17
  %19 = sub i32 %16, %17
  %20 = sext i32 %18 to i64
  %21 = xor i32 %12, -1
  %22 = sext i32 %19 to i64
  br label %23

23:                                               ; preds = %68, %8
  %.041 = phi ptr [ %1, %8 ], [ %72, %68 ]
  %.040 = phi ptr [ %0, %8 ], [ %70, %68 ]
  %.0 = phi i32 [ %3, %8 ], [ %73, %68 ]
  br label %24

24:                                               ; preds = %60, %23
  %.044 = phi i32 [ %2, %23 ], [ %67, %60 ]
  %.142 = phi ptr [ %.041, %23 ], [ %66, %60 ]
  %.1 = phi ptr [ %.040, %23 ], [ %63, %60 ]
  %25 = load i32, ptr %.1, align 4
  %26 = icmp sgt i32 %25, -1
  br i1 %26, label %60, label %27

27:                                               ; preds = %24
  %28 = icmp ugt i32 %25, -16777217
  br i1 %28, label %55, label %29

29:                                               ; preds = %27
  %30 = and i32 %25, 255
  %31 = lshr i32 %25, 8
  %32 = and i32 %31, 255
  %33 = lshr i32 %25, 16
  %34 = and i32 %33, 255
  %35 = lshr i32 %25, 24
  %36 = zext nneg i32 %35 to i64
  %37 = zext nneg i32 %34 to i64
  %38 = getelementptr inbounds [256 x [256 x i8]], ptr @mul8table, i64 0, i64 %36, i64 %37
  %39 = load i8, ptr %38, align 1
  %40 = zext i8 %39 to i32
  %41 = zext nneg i32 %32 to i64
  %42 = getelementptr inbounds [256 x [256 x i8]], ptr @mul8table, i64 0, i64 %36, i64 %41
  %43 = load i8, ptr %42, align 1
  %44 = zext i8 %43 to i32
  %45 = zext nneg i32 %30 to i64
  %46 = getelementptr inbounds [256 x [256 x i8]], ptr @mul8table, i64 0, i64 %36, i64 %45
  %47 = load i8, ptr %46, align 1
  %48 = zext i8 %47 to i32
  %49 = shl nuw nsw i32 %35, 16
  %50 = shl nuw nsw i32 %40, 8
  %51 = or disjoint i32 %50, %49
  %52 = or disjoint i32 %51, %44
  %53 = shl nuw i32 %52, 8
  %54 = or disjoint i32 %53, %48
  br label %55

55:                                               ; preds = %27, %29
  %.043 = phi i32 [ %54, %29 ], [ %25, %27 ]
  %56 = xor i32 %.043, %10
  %57 = and i32 %56, %21
  %58 = load i32, ptr %.142, align 4
  %59 = xor i32 %57, %58
  store i32 %59, ptr %.142, align 4
  br label %60

60:                                               ; preds = %24, %55
  %61 = ptrtoint ptr %.1 to i64
  %62 = add nsw i64 %61, 4
  %63 = inttoptr i64 %62 to ptr
  %64 = ptrtoint ptr %.142 to i64
  %65 = add nsw i64 %64, 4
  %66 = inttoptr i64 %65 to ptr
  %67 = add i32 %.044, -1
  %.not = icmp eq i32 %67, 0
  br i1 %.not, label %68, label %24, !llvm.loop !37

68:                                               ; preds = %60
  %69 = add nsw i64 %62, %20
  %70 = inttoptr i64 %69 to ptr
  %71 = add nsw i64 %65, %22
  %72 = inttoptr i64 %71 to ptr
  %73 = add i32 %.0, -1
  %.not48 = icmp eq i32 %73, 0
  br i1 %.not48, label %74, label %23, !llvm.loop !38

74:                                               ; preds = %68
  ret void
}